target datalayout = "e-m:e-p270:32:32-p271:32:32-p272:64:64-i64:64-i128:128-f80:128-n8:16:32:64-S128"
target triple = "x86_64-pc-linux-gnu"

%class.btSequentialImpulseConstraintSolver = type { %class.btConstraintSolver, %class.btAlignedObjectArray, %class.btAlignedObjectArray.0, %class.btAlignedObjectArray.0, %class.btAlignedObjectArray.0, %class.btAlignedObjectArray.0, %class.btAlignedObjectArray.2, %class.btAlignedObjectArray.2, %class.btAlignedObjectArray.2, %class.btAlignedObjectArray.4, i32, i32, %class.btAlignedObjectArray.2, ptr, ptr, ptr, i32, float, i64, %struct.btSolverAnalyticsData }
%class.btConstraintSolver = type { ptr }
%class.btAlignedObjectArray = type <{ [4 x i8], i32, i32, [4 x i8], ptr, i8, [7 x i8] }>
%class.btAlignedObjectArray.0 = type <{ [4 x i8], i32, i32, [4 x i8], ptr, i8, [7 x i8] }>
%class.btAlignedObjectArray.4 = type <{ [4 x i8], i32, i32, [4 x i8], ptr, i8, [7 x i8] }>
%class.btAlignedObjectArray.2 = type <{ [4 x i8], i32, i32, [4 x i8], ptr, i8, [7 x i8] }>
%struct.btSolverAnalyticsData = type { i32, i32, i32, i32, i32, double }
%class.btVector3 = type { [4 x float] }
%struct.btSolverConstraint = type { %class.btVector3, %class.btVector3, %class.btVector3, %class.btVector3, %class.btVector3, %class.btVector3, float, float, float, float, float, float, float, float, float, %union.anon.6, i32, i32, i32, i32 }
%union.anon.6 = type { ptr }
%class.btManifoldPoint = type <{ %class.btVector3, %class.btVector3, %class.btVector3, %class.btVector3, %class.btVector3, float, float, float, float, float, i32, i32, i32, i32, [4 x i8], ptr, i32, float, float, float, float, float, float, %union.anon.11, %union.anon.12, float, i32, %class.btVector3, %class.btVector3, [4 x i8] }>
%union.anon.11 = type { float }
%union.anon.12 = type { float }
%struct.btContactSolverInfoData = type { float, float, float, float, float, i32, float, float, float, float, float, float, float, float, float, float, i32, float, float, float, float, float, i32, i32, i32, float, float, float, float, i8, i8, i32, i32 }

; Function Attrs: inlinehint mustprogress nounwind uwtable
define linkonce_odr dso_local noundef nonnull align 8 dereferenceable(160) ptr @_ZN20btAlignedObjectArrayI18btSolverConstraintEixEi(ptr noundef nonnull align 8 dereferenceable(25) %0, i32 noundef %1) #3 comdat align 2 {
  %3 = alloca ptr, align 8
  %4 = alloca i32, align 4
  store ptr %0, ptr %3, align 8, !tbaa !45
  store i32 %1, ptr %4, align 4, !tbaa !9
  %5 = load ptr, ptr %3, align 8
  %6 = getelementptr inbounds nuw %class.btAlignedObjectArray.0, ptr %5, i32 0, i32 4
  %7 = load ptr, ptr %6, align 8, !tbaa !120
  %8 = load i32, ptr %4, align 4, !tbaa !9
  %9 = sext i32 %8 to i64
  %10 = getelementptr inbounds %struct.btSolverConstraint, ptr %7, i64 %9
  ret ptr %10
}

; Function Attrs: mustprogress uwtable
define dso_local void @_ZN35btSequentialImpulseConstraintSolver17writeBackContactsEiiRK19btContactSolverInfo(ptr noundef nonnull align 8 dereferenceable(408) %0, i32 noundef %1, i32 noundef %2, ptr noundef nonnull align 4 dereferenceable(128) %3) #2 align 2 {
  %5 = alloca ptr, align 8
  %6 = alloca i32, align 4
  %7 = alloca i32, align 4
  %8 = alloca ptr, align 8
  %9 = alloca i32, align 4
  %10 = alloca ptr, align 8
  %11 = alloca ptr, align 8
  store ptr %0, ptr %5, align 8, !tbaa !12
  store i32 %1, ptr %6, align 4, !tbaa !9
  store i32 %2, ptr %7, align 4, !tbaa !9
  store ptr %3, ptr %8, align 8, !tbaa !106
  %12 = load ptr, ptr %5, align 8
  call void @llvm.lifetime.start.p0(i64 4, ptr %9) #15
  %13 = load i32, ptr %6, align 4, !tbaa !9
  store i32 %13, ptr %9, align 4, !tbaa !9
  br label %14

14:                                               ; preds = %57, %4
  %15 = load i32, ptr %9, align 4, !tbaa !9
  %16 = load i32, ptr %7, align 4, !tbaa !9
  %17 = icmp slt i32 %15, %16
  br i1 %17, label %19, label %18

18:                                               ; preds = %14
  call void @llvm.lifetime.end.p0(i64 4, ptr %9) #15
  br label %60

19:                                               ; preds = %14
  call void @llvm.lifetime.start.p0(i64 8, ptr %10) #15
  %20 = getelementptr inbounds nuw %class.btSequentialImpulseConstraintSolver, ptr %12, i32 0, i32 2
  %21 = load i32, ptr %9, align 4, !tbaa !9
  %22 = call noundef nonnull align 8 dereferenceable(160) ptr @_ZN20btAlignedObjectArrayI18btSolverConstraintEixEi(ptr noundef nonnull align 8 dereferenceable(25) %20, i32 noundef %21)
  store ptr %22, ptr %10, align 8, !tbaa !16
  call void @llvm.lifetime.start.p0(i64 8, ptr %11) #15
  %23 = load ptr, ptr %10, align 8, !tbaa !16
  %24 = getelementptr inbounds nuw %struct.btSolverConstraint, ptr %23, i32 0, i32 15
  %25 = load ptr, ptr %24, align 8, !tbaa !11
  store ptr %25, ptr %11, align 8, !tbaa !104
  %26 = load ptr, ptr %10, align 8, !tbaa !16
  %27 = getelementptr inbounds nuw %struct.btSolverConstraint, ptr %26, i32 0, i32 7
  %28 = load float, ptr %27, align 4, !tbaa !64
  %29 = load ptr, ptr %11, align 8, !tbaa !104
  %30 = getelementptr inbounds nuw %class.btManifoldPoint, ptr %29, i32 0, i32 17
  store float %28, ptr %30, align 4, !tbaa !132
  %31 = getelementptr inbounds nuw %class.btSequentialImpulseConstraintSolver, ptr %12, i32 0, i32 4
  %32 = load ptr, ptr %10, align 8, !tbaa !16
  %33 = getelementptr inbounds nuw %struct.btSolverConstraint, ptr %32, i32 0, i32 17
  %34 = load i32, ptr %33, align 4, !tbaa !118
  %35 = call noundef nonnull align 8 dereferenceable(160) ptr @_ZN20btAlignedObjectArrayI18btSolverConstraintEixEi(ptr noundef nonnull align 8 dereferenceable(25) %31, i32 noundef %34)
  %36 = getelementptr inbounds nuw %struct.btSolverConstraint, ptr %35, i32 0, i32 7
  %37 = load float, ptr %36, align 4, !tbaa !64
  %38 = load ptr, ptr %11, align 8, !tbaa !104
  %39 = getelementptr inbounds nuw %class.btManifoldPoint, ptr %38, i32 0, i32 19
  store float %37, ptr %39, align 4, !tbaa !234
  %40 = load ptr, ptr %8, align 8, !tbaa !106
  %41 = getelementptr inbounds nuw %struct.btContactSolverInfoData, ptr %40, i32 0, i32 22
  %42 = load i32, ptr %41, align 4, !tbaa !131
  %43 = and i32 %42, 16
  %44 = icmp ne i32 %43, 0
  br i1 %44, label %45, label %56

45:                                               ; preds = %19
  %46 = getelementptr inbounds nuw %class.btSequentialImpulseConstraintSolver, ptr %12, i32 0, i32 4
  %47 = load ptr, ptr %10, align 8, !tbaa !16
  %48 = getelementptr inbounds nuw %struct.btSolverConstraint, ptr %47, i32 0, i32 17
  %49 = load i32, ptr %48, align 4, !tbaa !118
  %50 = add nsw i32 %49, 1
  %51 = call noundef nonnull align 8 dereferenceable(160) ptr @_ZN20btAlignedObjectArrayI18btSolverConstraintEixEi(ptr noundef nonnull align 8 dereferenceable(25) %46, i32 noundef %50)
  %52 = getelementptr inbounds nuw %struct.btSolverConstraint, ptr %51, i32 0, i32 7
  %53 = load float, ptr %52, align 4, !tbaa !64
  %54 = load ptr, ptr %11, align 8, !tbaa !104
  %55 = getelementptr inbounds nuw %class.btManifoldPoint, ptr %54, i32 0, i32 20
  store float %53, ptr %55, align 8, !tbaa !235
  br label %56

56:                                               ; preds = %45, %19
  call void @llvm.lifetime.end.p0(i64 8, ptr %11) #15
  call void @llvm.lifetime.end.p0(i64 8, ptr %10) #15
  br label %57

57:                                               ; preds = %56
  %58 = load i32, ptr %9, align 4, !tbaa !9
  %59 = add nsw i32 %58, 1
  store i32 %59, ptr %9, align 4, !tbaa !9
  br label %14, !llvm.loop !236

60:                                               ; preds = %18
  ret void
}