; Function Attrs: mustprogress nofree norecurse nosync nounwind memory(readwrite, inaccessiblemem: none) uwtable
define dso_local void @_ZN35btSequentialImpulseConstraintSolver17writeBackContactsEiiRK19btContactSolverInfo(ptr noundef nonnull readonly align 8 captures(none) dereferenceable(408) %0, i32 noundef %1, i32 noundef %2, ptr noundef nonnull readonly align 4 captures(none) dereferenceable(128) %3) local_unnamed_addr #16 align 2 {
  %5 = icmp slt i32 %1, %2
  br i1 %5, label %.lr.ph, label %._crit_edge

.lr.ph:                                           ; preds = %4
  %6 = getelementptr inbounds nuw i8, ptr %0, i64 56
  %7 = load ptr, ptr %6, align 8, !tbaa !36
  %8 = getelementptr inbounds nuw i8, ptr %0, i64 120
  %9 = load ptr, ptr %8, align 8, !tbaa !36
  %10 = getelementptr inbounds nuw i8, ptr %3, i64 88
  %11 = load i32, ptr %10, align 4, !tbaa !113
  %12 = and i32 %11, 16
  %.not = icmp eq i32 %12, 0
  %invariant.gep = getelementptr i8, ptr %9, i64 260
  %13 = sext i32 %1 to i64
  %wide.trip.count19 = sext i32 %2 to i64
  br i1 %.not, label %.lr.ph.split.us, label %.lr.ph.split

.lr.ph.split.us:                                  ; preds = %.lr.ph, %.lr.ph.split.us
  %indvars.iv16 = phi i64 [ %indvars.iv.next17, %.lr.ph.split.us ], [ %13, %.lr.ph ]
  %14 = getelementptr inbounds %struct.btSolverConstraint, ptr %7, i64 %indvars.iv16
  %15 = getelementptr inbounds nuw i8, ptr %14, i64 136
  %16 = load ptr, ptr %15, align 8, !tbaa !81
  %17 = getelementptr inbounds nuw i8, ptr %14, i64 100
  %18 = load float, ptr %17, align 4, !tbaa !57
  %19 = getelementptr inbounds nuw i8, ptr %16, i64 132
  store float %18, ptr %19, align 4, !tbaa !114
  %20 = getelementptr inbounds nuw i8, ptr %14, i64 148
  %21 = load i32, ptr %20, align 4, !tbaa !101
  %22 = sext i32 %21 to i64
  %23 = getelementptr inbounds %struct.btSolverConstraint, ptr %9, i64 %22, i32 7
  %24 = load float, ptr %23, align 4, !tbaa !57
  %25 = getelementptr inbounds nuw i8, ptr %16, i64 140
  store float %24, ptr %25, align 4, !tbaa !203
  %indvars.iv.next17 = add nsw i64 %indvars.iv16, 1
  %exitcond20.not = icmp eq i64 %indvars.iv.next17, %wide.trip.count19
  br i1 %exitcond20.not, label %._crit_edge, label %.lr.ph.split.us, !llvm.loop !204

._crit_edge:                                      ; preds = %.lr.ph.split, %.lr.ph.split.us, %4
  ret void

.lr.ph.split:                                     ; preds = %.lr.ph, %.lr.ph.split
  %indvars.iv = phi i64 [ %indvars.iv.next, %.lr.ph.split ], [ %13, %.lr.ph ]
  %26 = getelementptr inbounds %struct.btSolverConstraint, ptr %7, i64 %indvars.iv
  %27 = getelementptr inbounds nuw i8, ptr %26, i64 136
  %28 = load ptr, ptr %27, align 8, !tbaa !81
  %29 = getelementptr inbounds nuw i8, ptr %26, i64 100
  %30 = load float, ptr %29, align 4, !tbaa !57
  %31 = getelementptr inbounds nuw i8, ptr %28, i64 132
  store float %30, ptr %31, align 4, !tbaa !114
  %32 = getelementptr inbounds nuw i8, ptr %26, i64 148
  %33 = load i32, ptr %32, align 4, !tbaa !101
  %34 = sext i32 %33 to i64
  %35 = getelementptr inbounds %struct.btSolverConstraint, ptr %9, i64 %34, i32 7
  %36 = load float, ptr %35, align 4, !tbaa !57
  %37 = getelementptr inbounds nuw i8, ptr %28, i64 140
  store float %36, ptr %37, align 4, !tbaa !203
  %gep = getelementptr %struct.btSolverConstraint, ptr %invariant.gep, i64 %34
  %38 = load float, ptr %gep, align 4, !tbaa !57
  %39 = getelementptr inbounds nuw i8, ptr %28, i64 144
  store float %38, ptr %39, align 8, !tbaa !205
  %indvars.iv.next = add nsw i64 %indvars.iv, 1
  %exitcond.not = icmp eq i64 %indvars.iv.next, %wide.trip.count19
  br i1 %exitcond.not, label %._crit_edge, label %.lr.ph.split, !llvm.loop !204
}